; Function Attrs: nounwind uwtable
define dso_local range(i32 -1, 2) i32 @qsortCompareSetsByCardinality(ptr noundef readonly captures(none) %0, ptr noundef readonly captures(none) %1) #0 {
  %3 = load ptr, ptr %0, align 8, !tbaa !73
  %4 = load i32, ptr %3, align 8
  %5 = lshr i32 %4, 4
  %6 = and i32 %5, 15
  switch i32 %6, label %24 [
    i32 2, label %7
    i32 6, label %15
    i32 11, label %20
  ]

7:                                                ; preds = %2
  %8 = getelementptr inbounds nuw i8, ptr %3, i64 8
  %9 = load ptr, ptr %8, align 8, !tbaa !38
  %10 = getelementptr inbounds nuw i8, ptr %9, i64 24
  %11 = load i64, ptr %10, align 8, !tbaa !50
  %12 = getelementptr inbounds nuw i8, ptr %9, i64 32
  %13 = load i64, ptr %12, align 8, !tbaa !50
  %14 = add i64 %13, %11
  br label %setTypeSize.exit

15:                                               ; preds = %2
  %16 = getelementptr inbounds nuw i8, ptr %3, i64 8
  %17 = load ptr, ptr %16, align 8, !tbaa !38
  %18 = tail call i32 @intsetLen(ptr noundef %17) #10
  %19 = zext i32 %18 to i64
  br label %setTypeSize.exit

20:                                               ; preds = %2
  %21 = getelementptr inbounds nuw i8, ptr %3, i64 8
  %22 = load ptr, ptr %21, align 8, !tbaa !38
  %23 = tail call i64 @lpLength(ptr noundef %22) #10
  br label %setTypeSize.exit

24:                                               ; preds = %2
  tail call void (ptr, i32, ptr, ...) @_serverPanic(ptr noundef nonnull @.str.1, i32 noundef 471, ptr noundef nonnull @.str.3) #10
  tail call void @abort() #11
  unreachable

setTypeSize.exit:                                 ; preds = %7, %15, %20
  %.0.i = phi i64 [ %14, %7 ], [ %19, %15 ], [ %23, %20 ]
  %25 = load ptr, ptr %1, align 8, !tbaa !73
  %26 = load i32, ptr %25, align 8
  %27 = lshr i32 %26, 4
  %28 = and i32 %27, 15
  switch i32 %28, label %46 [
    i32 2, label %29
    i32 6, label %37
    i32 11, label %42
  ]

29:                                               ; preds = %setTypeSize.exit
  %30 = getelementptr inbounds nuw i8, ptr %25, i64 8
  %31 = load ptr, ptr %30, align 8, !tbaa !38
  %32 = getelementptr inbounds nuw i8, ptr %31, i64 24
  %33 = load i64, ptr %32, align 8, !tbaa !50
  %34 = getelementptr inbounds nuw i8, ptr %31, i64 32
  %35 = load i64, ptr %34, align 8, !tbaa !50
  %36 = add i64 %35, %33
  br label %setTypeSize.exit5

37:                                               ; preds = %setTypeSize.exit
  %38 = getelementptr inbounds nuw i8, ptr %25, i64 8
  %39 = load ptr, ptr %38, align 8, !tbaa !38
  %40 = tail call i32 @intsetLen(ptr noundef %39) #10
  %41 = zext i32 %40 to i64
  br label %setTypeSize.exit5

42:                                               ; preds = %setTypeSize.exit
  %43 = getelementptr inbounds nuw i8, ptr %25, i64 8
  %44 = load ptr, ptr %43, align 8, !tbaa !38
  %45 = tail call i64 @lpLength(ptr noundef %44) #10
  br label %setTypeSize.exit5

46:                                               ; preds = %setTypeSize.exit
  tail call void (ptr, i32, ptr, ...) @_serverPanic(ptr noundef nonnull @.str.1, i32 noundef 471, ptr noundef nonnull @.str.3) #10
  tail call void @abort() #11
  unreachable

setTypeSize.exit5:                                ; preds = %29, %37, %42
  %.0.i4 = phi i64 [ %36, %29 ], [ %41, %37 ], [ %45, %42 ]
  %47 = icmp ugt i64 %.0.i, %.0.i4
  br i1 %47, label %94, label %48

48:                                               ; preds = %setTypeSize.exit5
  %49 = load ptr, ptr %0, align 8, !tbaa !73
  %50 = load i32, ptr %49, align 8
  %51 = lshr i32 %50, 4
  %52 = and i32 %51, 15
  switch i32 %52, label %70 [
    i32 2, label %53
    i32 6, label %61
    i32 11, label %66
  ]

53:                                               ; preds = %48
  %54 = getelementptr inbounds nuw i8, ptr %49, i64 8
  %55 = load ptr, ptr %54, align 8, !tbaa !38
  %56 = getelementptr inbounds nuw i8, ptr %55, i64 24
  %57 = load i64, ptr %56, align 8, !tbaa !50
  %58 = getelementptr inbounds nuw i8, ptr %55, i64 32
  %59 = load i64, ptr %58, align 8, !tbaa !50
  %60 = add i64 %59, %57
  br label %setTypeSize.exit7

61:                                               ; preds = %48
  %62 = getelementptr inbounds nuw i8, ptr %49, i64 8
  %63 = load ptr, ptr %62, align 8, !tbaa !38
  %64 = tail call i32 @intsetLen(ptr noundef %63) #10
  %65 = zext i32 %64 to i64
  br label %setTypeSize.exit7

66:                                               ; preds = %48
  %67 = getelementptr inbounds nuw i8, ptr %49, i64 8
  %68 = load ptr, ptr %67, align 8, !tbaa !38
  %69 = tail call i64 @lpLength(ptr noundef %68) #10
  br label %setTypeSize.exit7

70:                                               ; preds = %48
  tail call void (ptr, i32, ptr, ...) @_serverPanic(ptr noundef nonnull @.str.1, i32 noundef 471, ptr noundef nonnull @.str.3) #10
  tail call void @abort() #11
  unreachable

setTypeSize.exit7:                                ; preds = %53, %61, %66
  %.0.i6 = phi i64 [ %60, %53 ], [ %65, %61 ], [ %69, %66 ]
  %71 = load ptr, ptr %1, align 8, !tbaa !73
  %72 = load i32, ptr %71, align 8
  %73 = lshr i32 %72, 4
  %74 = and i32 %73, 15
  switch i32 %74, label %92 [
    i32 2, label %75
    i32 6, label %83
    i32 11, label %88
  ]

75:                                               ; preds = %setTypeSize.exit7
  %76 = getelementptr inbounds nuw i8, ptr %71, i64 8
  %77 = load ptr, ptr %76, align 8, !tbaa !38
  %78 = getelementptr inbounds nuw i8, ptr %77, i64 24
  %79 = load i64, ptr %78, align 8, !tbaa !50
  %80 = getelementptr inbounds nuw i8, ptr %77, i64 32
  %81 = load i64, ptr %80, align 8, !tbaa !50
  %82 = add i64 %81, %79
  br label %setTypeSize.exit9

83:                                               ; preds = %setTypeSize.exit7
  %84 = getelementptr inbounds nuw i8, ptr %71, i64 8
  %85 = load ptr, ptr %84, align 8, !tbaa !38
  %86 = tail call i32 @intsetLen(ptr noundef %85) #10
  %87 = zext i32 %86 to i64
  br label %setTypeSize.exit9

88:                                               ; preds = %setTypeSize.exit7
  %89 = getelementptr inbounds nuw i8, ptr %71, i64 8
  %90 = load ptr, ptr %89, align 8, !tbaa !38
  %91 = tail call i64 @lpLength(ptr noundef %90) #10
  br label %setTypeSize.exit9

92:                                               ; preds = %setTypeSize.exit7
  tail call void (ptr, i32, ptr, ...) @_serverPanic(ptr noundef nonnull @.str.1, i32 noundef 471, ptr noundef nonnull @.str.3) #10
  tail call void @abort() #11
  unreachable

setTypeSize.exit9:                                ; preds = %75, %83, %88
  %.0.i8 = phi i64 [ %82, %75 ], [ %87, %83 ], [ %91, %88 ]
  %93 = icmp ult i64 %.0.i6, %.0.i8
  %. = sext i1 %93 to i32
  br label %94

94:                                               ; preds = %setTypeSize.exit9, %setTypeSize.exit5
  %.0 = phi i32 [ 1, %setTypeSize.exit5 ], [ %., %setTypeSize.exit9 ]
  ret i32 %.0
}